target datalayout = "e-m:e-p270:32:32-p271:32:32-p272:64:64-i64:64-i128:128-f80:128-n8:16:32:64-S128"
target triple = "x86_64-pc-linux-gnu"

%struct.SDL_Pen = type { i32, ptr, %struct.SDL_PenInfo, [7 x float], float, float, i32, ptr }
%struct.SDL_PenInfo = type { i32, float, i32, i32, i32 }
%union.SDL_Event = type { %struct.SDL_MouseWheelEvent, [72 x i8] }
%struct.SDL_MouseWheelEvent = type { i32, i32, i64, i32, i32, float, float, i32, float, float, i32, i32 }
%struct.SDL_Window = type { i32, ptr, ptr, i32, i32, i32, i32, i32, i32, i32, i32, float, float, i32, i32, i64, i64, float, i8, i8, i32, i32, %struct.SDL_Rect, %struct.SDL_Rect, %struct.SDL_Rect, i8, i8, i8, %struct.SDL_DisplayMode, %struct.SDL_DisplayMode, %struct.SDL_HDROutputProperties, float, ptr, i8, i8, i8, i8, i8, i8, i8, i8, i8, i32, i32, i32, i32, %struct.SDL_Rect, i32, i8, %struct.SDL_Rect, i32, %struct.SDL_Rect, ptr, ptr, i32, float, i32, i32, ptr, ptr, ptr, ptr, ptr, ptr, ptr, ptr, ptr }
%struct.SDL_DisplayMode = type { i32, i32, i32, i32, float, float, i32, i32, ptr }
%struct.SDL_HDROutputProperties = type { float, float }
%struct.SDL_Rect = type { i32, i32, i32, i32 }
%struct.SDL_Mouse = type { ptr, ptr, ptr, ptr, ptr, ptr, ptr, ptr, ptr, ptr, ptr, ptr, ptr, ptr, i8, float, float, ptr, float, float, float, float, float, float, float, float, double, double, i8, i8, i8, i8, i8, i8, i8, i8, i64, i8, float, i8, float, i8, i32, i32, i8, i8, i8, i8, i8, i8, i8, i8, i8, ptr, i32, ptr, ptr, ptr, ptr, i8, ptr }
%struct.SDL_PenButtonEvent = type { i32, i32, i64, i32, i32, i32, float, float, i8, i8 }

@pen_device_rwlock = internal global ptr null, align 8
@pen_device_count = internal global i32 0, align 4
@pen_devices = internal global ptr null, align 8
@pen_touching = internal global i32 0, align 4
@SDL_SendPenButton.mouse_buttons = internal constant [5 x i8] c"\01\03\02\04\05", align 1
@.str.1 = private unnamed_addr constant [24 x i8] c"Invalid pen instance ID\00", align 1

; Function Attrs: nounwind uwtable
define internal ptr @FindPenByInstanceId(i32 noundef %0) #0 {
  %2 = alloca ptr, align 8
  %3 = alloca i32, align 4
  %4 = alloca i32, align 4
  %5 = alloca i32, align 4
  store i32 %0, ptr %3, align 4
  %6 = load i32, ptr %3, align 4
  %7 = icmp ne i32 %6, 0
  br i1 %7, label %8, label %35

8:                                                ; preds = %1
  call void @llvm.lifetime.start.p0(i64 4, ptr %4) #6
  store i32 0, ptr %4, align 4
  br label %9

9:                                                ; preds = %29, %8
  %10 = load i32, ptr %4, align 4
  %11 = load i32, ptr @pen_device_count, align 4
  %12 = icmp slt i32 %10, %11
  br i1 %12, label %14, label %13

13:                                               ; preds = %9
  store i32 2, ptr %5, align 4
  br label %32

14:                                               ; preds = %9
  %15 = load ptr, ptr @pen_devices, align 8
  %16 = load i32, ptr %4, align 4
  %17 = sext i32 %16 to i64
  %18 = getelementptr inbounds %struct.SDL_Pen, ptr %15, i64 %17
  %19 = getelementptr inbounds nuw %struct.SDL_Pen, ptr %18, i32 0, i32 0
  %20 = load i32, ptr %19, align 8
  %21 = load i32, ptr %3, align 4
  %22 = icmp eq i32 %20, %21
  br i1 %22, label %23, label %28

23:                                               ; preds = %14
  %24 = load ptr, ptr @pen_devices, align 8
  %25 = load i32, ptr %4, align 4
  %26 = sext i32 %25 to i64
  %27 = getelementptr inbounds %struct.SDL_Pen, ptr %24, i64 %26
  store ptr %27, ptr %2, align 8
  store i32 1, ptr %5, align 4
  br label %32

28:                                               ; preds = %14
  br label %29

29:                                               ; preds = %28
  %30 = load i32, ptr %4, align 4
  %31 = add nsw i32 %30, 1
  store i32 %31, ptr %4, align 4
  br label %9, !llvm.loop !7

32:                                               ; preds = %23, %13
  call void @llvm.lifetime.end.p0(i64 4, ptr %4) #6
  %33 = load i32, ptr %5, align 4
  switch i32 %33, label %39 [
    i32 2, label %34
    i32 1, label %37
  ]

34:                                               ; preds = %32
  br label %35

35:                                               ; preds = %34, %1
  %36 = call zeroext i1 (ptr, ...) @SDL_SetError_REAL(ptr noundef @.str.1)
  store ptr null, ptr %2, align 8
  br label %37

37:                                               ; preds = %35, %32
  %38 = load ptr, ptr %2, align 8
  ret ptr %38

39:                                               ; preds = %32
  unreachable
}

; Function Attrs: nounwind uwtable
define hidden void @SDL_SendPenButton(i64 noundef %0, i32 noundef %1, ptr noundef %2, i8 noundef zeroext %3, i1 noundef zeroext %4) #0 {
  %6 = alloca i64, align 8
  %7 = alloca i32, align 4
  %8 = alloca ptr, align 8
  %9 = alloca i8, align 1
  %10 = alloca i8, align 1
  %11 = alloca i8, align 1
  %12 = alloca i32, align 4
  %13 = alloca float, align 4
  %14 = alloca float, align 4
  %15 = alloca i32, align 4
  %16 = alloca ptr, align 8
  %17 = alloca i32, align 4
  %18 = alloca i8, align 1
  %19 = alloca i32, align 4
  %20 = alloca %union.SDL_Event, align 8
  %21 = alloca ptr, align 8
  store i64 %0, ptr %6, align 8
  store i32 %1, ptr %7, align 4
  store ptr %2, ptr %8, align 8
  store i8 %3, ptr %9, align 1
  %22 = zext i1 %4 to i8
  store i8 %22, ptr %10, align 1
  call void @llvm.lifetime.start.p0(i64 1, ptr %11) #6
  store i8 0, ptr %11, align 1
  call void @llvm.lifetime.start.p0(i64 4, ptr %12) #6
  store i32 0, ptr %12, align 4
  call void @llvm.lifetime.start.p0(i64 4, ptr %13) #6
  store float 0.000000e+00, ptr %13, align 4
  call void @llvm.lifetime.start.p0(i64 4, ptr %14) #6
  store float 0.000000e+00, ptr %14, align 4
  %23 = load i8, ptr %9, align 1
  %24 = zext i8 %23 to i32
  %25 = icmp slt i32 %24, 1
  br i1 %25, label %30, label %26

26:                                               ; preds = %5
  %27 = load i8, ptr %9, align 1
  %28 = zext i8 %27 to i32
  %29 = icmp sgt i32 %28, 5
  br i1 %29, label %30, label %31

30:                                               ; preds = %26, %5
  store i32 1, ptr %15, align 4
  br label %156

31:                                               ; preds = %26
  %32 = load ptr, ptr @pen_device_rwlock, align 8
  call void @SDL_LockRWLockForReading_REAL(ptr noundef %32)
  call void @llvm.lifetime.start.p0(i64 8, ptr %16) #6
  %33 = load i32, ptr %7, align 4
  %34 = call ptr @FindPenByInstanceId(i32 noundef %33)
  store ptr %34, ptr %16, align 8
  %35 = load ptr, ptr %16, align 8
  %36 = icmp ne ptr %35, null
  br i1 %36, label %37, label %80

37:                                               ; preds = %31
  %38 = load ptr, ptr %16, align 8
  %39 = getelementptr inbounds nuw %struct.SDL_Pen, ptr %38, i32 0, i32 6
  %40 = load i32, ptr %39, align 8
  store i32 %40, ptr %12, align 4
  call void @llvm.lifetime.start.p0(i64 4, ptr %17) #6
  %41 = load i8, ptr %9, align 1
  %42 = zext i8 %41 to i32
  %43 = shl i32 1, %42
  store i32 %43, ptr %17, align 4
  call void @llvm.lifetime.start.p0(i64 1, ptr %18) #6
  %44 = load i32, ptr %12, align 4
  %45 = load i32, ptr %17, align 4
  %46 = and i32 %44, %45
  %47 = icmp ne i32 %46, 0
  %48 = zext i1 %47 to i8
  store i8 %48, ptr %18, align 1
  %49 = load ptr, ptr %16, align 8
  %50 = getelementptr inbounds nuw %struct.SDL_Pen, ptr %49, i32 0, i32 4
  %51 = load float, ptr %50, align 8
  store float %51, ptr %13, align 4
  %52 = load ptr, ptr %16, align 8
  %53 = getelementptr inbounds nuw %struct.SDL_Pen, ptr %52, i32 0, i32 5
  %54 = load float, ptr %53, align 4
  store float %54, ptr %14, align 4
  %55 = load i8, ptr %10, align 1, !range !9, !noundef !10
  %56 = trunc i8 %55 to i1
  br i1 %56, label %57, label %64

57:                                               ; preds = %37
  %58 = load i8, ptr %18, align 1, !range !9, !noundef !10
  %59 = trunc i8 %58 to i1
  br i1 %59, label %64, label %60

60:                                               ; preds = %57
  %61 = load i32, ptr %17, align 4
  %62 = load i32, ptr %12, align 4
  %63 = or i32 %62, %61
  store i32 %63, ptr %12, align 4
  store i8 1, ptr %11, align 1
  br label %76

64:                                               ; preds = %57, %37
  %65 = load i8, ptr %10, align 1, !range !9, !noundef !10
  %66 = trunc i8 %65 to i1
  br i1 %66, label %75, label %67

67:                                               ; preds = %64
  %68 = load i8, ptr %18, align 1, !range !9, !noundef !10
  %69 = trunc i8 %68 to i1
  br i1 %69, label %70, label %75

70:                                               ; preds = %67
  %71 = load i32, ptr %17, align 4
  %72 = xor i32 %71, -1
  %73 = load i32, ptr %12, align 4
  %74 = and i32 %73, %72
  store i32 %74, ptr %12, align 4
  store i8 1, ptr %11, align 1
  br label %75

75:                                               ; preds = %70, %67, %64
  br label %76

76:                                               ; preds = %75, %60
  %77 = load i32, ptr %12, align 4
  %78 = load ptr, ptr %16, align 8
  %79 = getelementptr inbounds nuw %struct.SDL_Pen, ptr %78, i32 0, i32 6
  store i32 %77, ptr %79, align 8
  call void @llvm.lifetime.end.p0(i64 1, ptr %18) #6
  call void @llvm.lifetime.end.p0(i64 4, ptr %17) #6
  br label %80

80:                                               ; preds = %76, %31
  %81 = load ptr, ptr @pen_device_rwlock, align 8
  call void @SDL_UnlockRWLock_REAL(ptr noundef %81)
  %82 = load i8, ptr %11, align 1, !range !9, !noundef !10
  %83 = trunc i8 %82 to i1
  br i1 %83, label %84, label %155

84:                                               ; preds = %80
  call void @llvm.lifetime.start.p0(i64 4, ptr %19) #6
  %85 = load i8, ptr %10, align 1, !range !9, !noundef !10
  %86 = trunc i8 %85 to i1
  %87 = select i1 %86, i32 4868, i32 4869
  store i32 %87, ptr %19, align 4
  %88 = load i32, ptr %19, align 4
  %89 = call zeroext i1 @SDL_EventEnabled_REAL(i32 noundef %88)
  br i1 %89, label %90, label %154

90:                                               ; preds = %84
  call void @llvm.lifetime.start.p0(i64 128, ptr %20) #6
  call void @llvm.memset.p0.i64(ptr align 8 %20, i8 0, i64 128, i1 false)
  %91 = load i32, ptr %19, align 4
  %92 = getelementptr inbounds nuw %struct.SDL_PenButtonEvent, ptr %20, i32 0, i32 0
  store i32 %91, ptr %92, align 8
  %93 = load i64, ptr %6, align 8
  %94 = getelementptr inbounds nuw %struct.SDL_PenButtonEvent, ptr %20, i32 0, i32 2
  store i64 %93, ptr %94, align 8
  %95 = load ptr, ptr %8, align 8
  %96 = icmp ne ptr %95, null
  br i1 %96, label %97, label %101

97:                                               ; preds = %90
  %98 = load ptr, ptr %8, align 8
  %99 = getelementptr inbounds nuw %struct.SDL_Window, ptr %98, i32 0, i32 0
  %100 = load i32, ptr %99, align 8
  br label %102

101:                                              ; preds = %90
  br label %102

102:                                              ; preds = %101, %97
  %103 = phi i32 [ %100, %97 ], [ 0, %101 ]
  %104 = getelementptr inbounds nuw %struct.SDL_PenButtonEvent, ptr %20, i32 0, i32 3
  store i32 %103, ptr %104, align 8
  %105 = load i32, ptr %7, align 4
  %106 = getelementptr inbounds nuw %struct.SDL_PenButtonEvent, ptr %20, i32 0, i32 4
  store i32 %105, ptr %106, align 4
  %107 = load i32, ptr %12, align 4
  %108 = getelementptr inbounds nuw %struct.SDL_PenButtonEvent, ptr %20, i32 0, i32 5
  store i32 %107, ptr %108, align 8
  %109 = load float, ptr %13, align 4
  %110 = getelementptr inbounds nuw %struct.SDL_PenButtonEvent, ptr %20, i32 0, i32 6
  store float %109, ptr %110, align 4
  %111 = load float, ptr %14, align 4
  %112 = getelementptr inbounds nuw %struct.SDL_PenButtonEvent, ptr %20, i32 0, i32 7
  store float %111, ptr %112, align 8
  %113 = load i8, ptr %9, align 1
  %114 = getelementptr inbounds nuw %struct.SDL_PenButtonEvent, ptr %20, i32 0, i32 8
  store i8 %113, ptr %114, align 4
  %115 = load i8, ptr %10, align 1, !range !9, !noundef !10
  %116 = trunc i8 %115 to i1
  %117 = getelementptr inbounds nuw %struct.SDL_PenButtonEvent, ptr %20, i32 0, i32 9
  %118 = zext i1 %116 to i8
  store i8 %118, ptr %117, align 1
  %119 = call zeroext i1 @SDL_PushEvent_REAL(ptr noundef %20)
  %120 = load ptr, ptr %8, align 8
  %121 = icmp ne ptr %120, null
  br i1 %121, label %122, label %153

122:                                              ; preds = %102
  %123 = load i32, ptr @pen_touching, align 4
  %124 = icmp ne i32 %123, 0
  br i1 %124, label %125, label %129

125:                                              ; preds = %122
  %126 = load i32, ptr @pen_touching, align 4
  %127 = load i32, ptr %7, align 4
  %128 = icmp eq i32 %126, %127
  br i1 %128, label %129, label %153

129:                                              ; preds = %125, %122
  call void @llvm.lifetime.start.p0(i64 8, ptr %21) #6
  %130 = call ptr @SDL_GetMouse()
  store ptr %130, ptr %21, align 8
  %131 = load ptr, ptr %21, align 8
  %132 = icmp ne ptr %131, null
  br i1 %132, label %133, label %152

133:                                              ; preds = %129
  %134 = load ptr, ptr %21, align 8
  %135 = getelementptr inbounds nuw %struct.SDL_Mouse, ptr %134, i32 0, i32 46
  %136 = load i8, ptr %135, align 2, !range !9, !noundef !10
  %137 = trunc i8 %136 to i1
  br i1 %137, label %138, label %152

138:                                              ; preds = %133
  %139 = load i8, ptr %9, align 1
  %140 = zext i8 %139 to i64
  %141 = icmp ult i64 %140, 5
  br i1 %141, label %142, label %151

142:                                              ; preds = %138
  %143 = load i64, ptr %6, align 8
  %144 = load ptr, ptr %8, align 8
  %145 = load i8, ptr %9, align 1
  %146 = zext i8 %145 to i64
  %147 = getelementptr inbounds nuw [5 x i8], ptr @SDL_SendPenButton.mouse_buttons, i64 0, i64 %146
  %148 = load i8, ptr %147, align 1
  %149 = load i8, ptr %10, align 1, !range !9, !noundef !10
  %150 = trunc i8 %149 to i1
  call void @SDL_SendMouseButton(i64 noundef %143, ptr noundef %144, i32 noundef -2, i8 noundef zeroext %148, i1 noundef zeroext %150)
  br label %151

151:                                              ; preds = %142, %138
  br label %152

152:                                              ; preds = %151, %133, %129
  call void @llvm.lifetime.end.p0(i64 8, ptr %21) #6
  br label %153

153:                                              ; preds = %152, %125, %102
  call void @llvm.lifetime.end.p0(i64 128, ptr %20) #6
  br label %154

154:                                              ; preds = %153, %84
  call void @llvm.lifetime.end.p0(i64 4, ptr %19) #6
  br label %155

155:                                              ; preds = %154, %80
  call void @llvm.lifetime.end.p0(i64 8, ptr %16) #6
  store i32 0, ptr %15, align 4
  br label %156

156:                                              ; preds = %155, %30
  call void @llvm.lifetime.end.p0(i64 4, ptr %14) #6
  call void @llvm.lifetime.end.p0(i64 4, ptr %13) #6
  call void @llvm.lifetime.end.p0(i64 4, ptr %12) #6
  call void @llvm.lifetime.end.p0(i64 1, ptr %11) #6
  %157 = load i32, ptr %15, align 4
  switch i32 %157, label %159 [
    i32 0, label %158
    i32 1, label %158
  ]

158:                                              ; preds = %156, %156
  ret void

159:                                              ; preds = %156
  unreachable
}