; Function Attrs: nounwind uwtable
define hidden void @SDL_SendPenButton(i64 noundef %0, i32 noundef %1, ptr noundef %2, i8 noundef zeroext %3, i1 noundef zeroext %4) local_unnamed_addr #0 {
  %6 = alloca %union.SDL_Event, align 8
  %7 = zext i1 %4 to i8
  %8 = zext nneg i8 %3 to i32
  %9 = add i8 %3, -6
  %or.cond = icmp ult i8 %9, -5
  br i1 %or.cond, label %72, label %10

10:                                               ; preds = %5
  %11 = load ptr, ptr @pen_device_rwlock, align 8
  tail call void @SDL_LockRWLockForReading_REAL(ptr noundef %11) #8
  %.not.i = icmp eq i32 %1, 0
  br i1 %.not.i, label %.thread, label %.preheader.i

.preheader.i:                                     ; preds = %10
  %12 = load i32, ptr @pen_device_count, align 4
  %13 = icmp sgt i32 %12, 0
  br i1 %13, label %.lr.ph.i, label %.thread

.lr.ph.i:                                         ; preds = %.preheader.i
  %14 = load ptr, ptr @pen_devices, align 8
  %wide.trip.count.i = zext nneg i32 %12 to i64
  br label %16

15:                                               ; preds = %16
  %indvars.iv.next.i = add nuw nsw i64 %indvars.iv.i, 1
  %exitcond.not.i = icmp eq i64 %indvars.iv.next.i, %wide.trip.count.i
  br i1 %exitcond.not.i, label %.thread, label %16, !llvm.loop !7

16:                                               ; preds = %15, %.lr.ph.i
  %indvars.iv.i = phi i64 [ 0, %.lr.ph.i ], [ %indvars.iv.next.i, %15 ]
  %17 = getelementptr inbounds nuw %struct.SDL_Pen, ptr %14, i64 %indvars.iv.i
  %18 = load i32, ptr %17, align 8
  %19 = icmp eq i32 %18, %1
  br i1 %19, label %FindPenByInstanceId.exit, label %15

.thread:                                          ; preds = %15, %.preheader.i, %10
  %20 = tail call zeroext i1 (ptr, ...) @SDL_SetError_REAL(ptr noundef nonnull @.str.1) #8
  %21 = load ptr, ptr @pen_device_rwlock, align 8
  tail call void @SDL_UnlockRWLock_REAL(ptr noundef %21) #8
  br label %72

FindPenByInstanceId.exit:                         ; preds = %16
  %22 = getelementptr inbounds nuw i8, ptr %17, i64 72
  %23 = load i32, ptr %22, align 8
  %24 = shl nuw nsw i32 1, %8
  %25 = and i32 %23, %24
  %26 = icmp ne i32 %25, 0
  %27 = getelementptr inbounds nuw i8, ptr %17, i64 64
  %28 = load float, ptr %27, align 8
  %29 = getelementptr inbounds nuw i8, ptr %17, i64 68
  %30 = load float, ptr %29, align 4
  %.not = xor i1 %4, true
  %or.cond4 = select i1 %.not, i1 true, i1 %26
  br i1 %or.cond4, label %33, label %31

31:                                               ; preds = %FindPenByInstanceId.exit
  %32 = or i32 %23, %24
  br label %39

33:                                               ; preds = %FindPenByInstanceId.exit
  %or.cond7 = select i1 %.not, i1 %26, i1 false
  br i1 %or.cond7, label %34, label %37

34:                                               ; preds = %33
  %35 = xor i32 %24, -1
  %36 = and i32 %23, %35
  br label %39

37:                                               ; preds = %33
  %38 = load ptr, ptr @pen_device_rwlock, align 8
  tail call void @SDL_UnlockRWLock_REAL(ptr noundef %38) #8
  br label %72

39:                                               ; preds = %34, %31
  %.152.ph = phi i32 [ %32, %31 ], [ %36, %34 ]
  store i32 %.152.ph, ptr %22, align 8
  %40 = load ptr, ptr @pen_device_rwlock, align 8
  tail call void @SDL_UnlockRWLock_REAL(ptr noundef %40) #8
  %41 = select i1 %4, i32 4868, i32 4869
  %42 = tail call zeroext i1 @SDL_EventEnabled_REAL(i32 noundef %41) #8
  br i1 %42, label %43, label %72

43:                                               ; preds = %39
  call void @llvm.lifetime.start.p0(i64 128, ptr nonnull %6) #8
  call void @llvm.memset.p0.i64(ptr noundef nonnull align 8 dereferenceable(128) %6, i8 0, i64 128, i1 false)
  store i32 %41, ptr %6, align 8
  %44 = getelementptr inbounds nuw i8, ptr %6, i64 8
  store i64 %0, ptr %44, align 8
  %.not63 = icmp eq ptr %2, null
  br i1 %.not63, label %47, label %45

45:                                               ; preds = %43
  %46 = load i32, ptr %2, align 8
  br label %47

47:                                               ; preds = %43, %45
  %48 = phi i32 [ %46, %45 ], [ 0, %43 ]
  %49 = getelementptr inbounds nuw i8, ptr %6, i64 16
  store i32 %48, ptr %49, align 8
  %50 = getelementptr inbounds nuw i8, ptr %6, i64 20
  store i32 %1, ptr %50, align 4
  %51 = getelementptr inbounds nuw i8, ptr %6, i64 24
  store i32 %.152.ph, ptr %51, align 8
  %52 = getelementptr inbounds nuw i8, ptr %6, i64 28
  store float %28, ptr %52, align 4
  %53 = getelementptr inbounds nuw i8, ptr %6, i64 32
  store float %30, ptr %53, align 8
  %54 = getelementptr inbounds nuw i8, ptr %6, i64 36
  store i8 %3, ptr %54, align 4
  %55 = getelementptr inbounds nuw i8, ptr %6, i64 37
  store i8 %7, ptr %55, align 1
  %56 = call zeroext i1 @SDL_PushEvent_REAL(ptr noundef nonnull %6) #8
  br i1 %.not63, label %71, label %57

57:                                               ; preds = %47
  %58 = load i32, ptr @pen_touching, align 4
  %.not64 = icmp eq i32 %58, 0
  %59 = icmp eq i32 %58, %1
  %or.cond66 = or i1 %.not64, %59
  br i1 %or.cond66, label %60, label %71

60:                                               ; preds = %57
  %61 = call ptr @SDL_GetMouse() #8
  %.not65 = icmp eq ptr %61, null
  br i1 %.not65, label %71, label %62

62:                                               ; preds = %60
  %63 = getelementptr inbounds nuw i8, ptr %61, i64 230
  %64 = load i8, ptr %63, align 2, !range !9, !noundef !10
  %65 = trunc nuw i8 %64 to i1
  %66 = icmp ult i8 %3, 5
  %or.cond10 = and i1 %66, %65
  br i1 %or.cond10, label %67, label %71

67:                                               ; preds = %62
  %68 = zext nneg i8 %3 to i64
  %69 = getelementptr inbounds nuw [5 x i8], ptr @SDL_SendPenButton.mouse_buttons, i64 0, i64 %68
  %70 = load i8, ptr %69, align 1
  call void @SDL_SendMouseButton(i64 noundef %0, ptr noundef nonnull %2, i32 noundef -2, i8 noundef zeroext %70, i1 noundef zeroext %4) #8
  br label %71

71:                                               ; preds = %60, %62, %67, %57, %47
  call void @llvm.lifetime.end.p0(i64 128, ptr nonnull %6) #8
  br label %72

72:                                               ; preds = %37, %.thread, %71, %39, %5
  ret void
}